target datalayout = "e-m:e-p270:32:32-p271:32:32-p272:64:64-i64:64-i128:128-f80:128-n8:16:32:64-S128"
target triple = "x86_64-pc-linux-gnu"

%"class.llvm::SmallVectorBase" = type { ptr, i32, i32 }
%"class.std::optional" = type { %"struct.std::_Optional_base" }
%"struct.std::_Optional_base" = type { %"struct.std::_Optional_payload" }
%"struct.std::_Optional_payload" = type { %"struct.std::_Optional_payload_base.base", [3 x i8] }
%"struct.std::_Optional_payload_base.base" = type <{ %"union.std::_Optional_payload_base<clang::interp::PrimType>::_Storage", i8 }>
%"union.std::_Optional_payload_base<clang::interp::PrimType>::_Storage" = type { i32 }
%"struct.clang::interp::ParamOffset" = type { i32, i8 }
%"class.llvm::PointerUnion.150" = type { %"class.llvm::pointer_union_detail::PointerUnionMembers.151" }
%"class.llvm::pointer_union_detail::PointerUnionMembers.151" = type { %"class.llvm::pointer_union_detail::PointerUnionMembers.152" }
%"class.llvm::pointer_union_detail::PointerUnionMembers.152" = type { %"class.llvm::pointer_union_detail::PointerUnionMembers.153" }
%"class.llvm::pointer_union_detail::PointerUnionMembers.153" = type { %"class.llvm::PointerIntPair.154" }
%"class.llvm::PointerIntPair.154" = type { %"struct.llvm::detail::PunnedPointer.3" }
%"struct.llvm::detail::PunnedPointer.3" = type { [8 x i8] }
%"class.clang::interp::ByteCodeEmitter" = type { ptr, %"class.llvm::DenseMap.44", %"class.llvm::DenseMap.47", %"struct.clang::interp::ParamOffset", %"class.llvm::SmallVector.50", ptr, ptr, i32, i32, %"class.llvm::DenseMap.55", %"class.llvm::DenseMap.58", %"class.std::vector", %"class.std::vector.61" }
%"class.llvm::DenseMap.44" = type <{ ptr, i32, i32, i32, [4 x i8] }>
%"class.llvm::DenseMap.47" = type <{ ptr, i32, i32, i32, [4 x i8] }>
%"class.llvm::SmallVector.50" = type { %"class.llvm::SmallVectorImpl.51", %"struct.llvm::SmallVectorStorage.54" }
%"class.llvm::SmallVectorImpl.51" = type { %"class.llvm::SmallVectorTemplateBase.52" }
%"class.llvm::SmallVectorTemplateBase.52" = type { %"class.llvm::SmallVectorTemplateCommon.53" }
%"class.llvm::SmallVectorTemplateCommon.53" = type { %"class.llvm::SmallVectorBase" }
%"struct.llvm::SmallVectorStorage.54" = type { [288 x i8] }
%"class.llvm::DenseMap.55" = type <{ ptr, i32, i32, i32, [4 x i8] }>
%"class.llvm::DenseMap.58" = type <{ ptr, i32, i32, i32, [4 x i8] }>
%"class.std::vector" = type { %"struct.std::_Vector_base" }
%"struct.std::_Vector_base" = type { %"struct.std::_Vector_base<std::byte, std::allocator<std::byte>>::_Vector_impl" }
%"struct.std::_Vector_base<std::byte, std::allocator<std::byte>>::_Vector_impl" = type { %"struct.std::_Vector_base<std::byte, std::allocator<std::byte>>::_Vector_impl_data" }
%"struct.std::_Vector_base<std::byte, std::allocator<std::byte>>::_Vector_impl_data" = type { ptr, ptr, ptr }
%"class.std::vector.61" = type { %"struct.std::_Vector_base.62" }
%"struct.std::_Vector_base.62" = type { %"struct.std::_Vector_base<std::pair<unsigned int, clang::interp::SourceInfo>, std::allocator<std::pair<unsigned int, clang::interp::SourceInfo>>>::_Vector_impl" }
%"struct.std::_Vector_base<std::pair<unsigned int, clang::interp::SourceInfo>, std::allocator<std::pair<unsigned int, clang::interp::SourceInfo>>>::_Vector_impl" = type { %"struct.std::_Vector_base<std::pair<unsigned int, clang::interp::SourceInfo>, std::allocator<std::pair<unsigned int, clang::interp::SourceInfo>>>::_Vector_impl_data" }
%"struct.std::_Vector_base<std::pair<unsigned int, clang::interp::SourceInfo>, std::allocator<std::pair<unsigned int, clang::interp::SourceInfo>>>::_Vector_impl_data" = type { ptr, ptr, ptr }
%"struct.clang::interp::Scope::Local" = type { i32, ptr }
%"struct.clang::interp::Descriptor" = type { %"class.llvm::PointerUnion.150", i32, i32, i32, i32, ptr, ptr, %"class.std::optional", i8, i8, i8, i8, i8, ptr, ptr, ptr }

; Function Attrs: mustprogress nounwind uwtable
define linkonce_odr hidden noundef i64 @_ZN5clang6interp5alignEm(i64 noundef %0) #0 comdat {
  %2 = alloca i64, align 8
  store i64 %0, ptr %2, align 8
  %3 = load i64, ptr %2, align 8
  %4 = add i64 %3, 8
  %5 = sub i64 %4, 1
  %6 = udiv i64 %5, 8
  %7 = mul i64 %6, 8
  ret i64 %7
}

; Function Attrs: mustprogress nounwind uwtable
define linkonce_odr hidden noundef i32 @_ZNK5clang6interp10Descriptor12getAllocSizeEv(ptr noundef nonnull align 8 dereferenceable(80) %0) #0 comdat align 2 {
  %2 = alloca ptr, align 8
  store ptr %0, ptr %2, align 8
  %3 = load ptr, ptr %2, align 8
  %4 = getelementptr inbounds nuw %"struct.clang::interp::Descriptor", ptr %3, i32 0, i32 4
  %5 = load i32, ptr %4, align 4
  ret i32 %5
}

; Function Attrs: mustprogress nounwind uwtable
define dso_local { i32, ptr } @_ZN5clang6interp15ByteCodeEmitter11createLocalEPNS0_10DescriptorE(ptr noundef nonnull align 8 dereferenceable(488) %0, ptr noundef %1) #0 align 2 {
  %3 = alloca %"struct.clang::interp::Scope::Local", align 8
  %4 = alloca ptr, align 8
  %5 = alloca ptr, align 8
  %6 = alloca i32, align 4
  store ptr %0, ptr %4, align 8
  store ptr %1, ptr %5, align 8
  %7 = load ptr, ptr %4, align 8
  %8 = getelementptr inbounds nuw %"class.clang::interp::ByteCodeEmitter", ptr %7, i32 0, i32 8
  %9 = load i32, ptr %8, align 4
  %10 = zext i32 %9 to i64
  %11 = add i64 %10, 40
  %12 = trunc i64 %11 to i32
  store i32 %12, ptr %8, align 4
  %13 = getelementptr inbounds nuw %"class.clang::interp::ByteCodeEmitter", ptr %7, i32 0, i32 8
  %14 = load i32, ptr %13, align 4
  store i32 %14, ptr %6, align 4
  %15 = load ptr, ptr %5, align 8
  %16 = call noundef i32 @_ZNK5clang6interp10Descriptor12getAllocSizeEv(ptr noundef nonnull align 8 dereferenceable(80) %15)
  %17 = zext i32 %16 to i64
  %18 = call noundef i64 @_ZN5clang6interp5alignEm(i64 noundef %17)
  %19 = getelementptr inbounds nuw %"class.clang::interp::ByteCodeEmitter", ptr %7, i32 0, i32 8
  %20 = load i32, ptr %19, align 4
  %21 = zext i32 %20 to i64
  %22 = add i64 %21, %18
  %23 = trunc i64 %22 to i32
  store i32 %23, ptr %19, align 4
  %24 = getelementptr inbounds nuw %"struct.clang::interp::Scope::Local", ptr %3, i32 0, i32 0
  %25 = load i32, ptr %6, align 4
  store i32 %25, ptr %24, align 8
  %26 = getelementptr inbounds nuw %"struct.clang::interp::Scope::Local", ptr %3, i32 0, i32 1
  %27 = load ptr, ptr %5, align 8
  store ptr %27, ptr %26, align 8
  %28 = load { i32, ptr }, ptr %3, align 8
  ret { i32, ptr } %28
}