; Function Attrs: mustprogress nofree norecurse nosync nounwind willreturn memory(argmem: readwrite) uwtable
define dso_local { i32, ptr } @_ZN5clang6interp15ByteCodeEmitter11createLocalEPNS0_10DescriptorE(ptr noundef nonnull align 8 captures(none) dereferenceable(488) %0, ptr noundef %1) local_unnamed_addr #3 align 2 {
  %3 = getelementptr inbounds nuw i8, ptr %0, i64 388
  %4 = load i32, ptr %3, align 4
  %5 = add i32 %4, 40
  store i32 %5, ptr %3, align 4
  %6 = getelementptr inbounds nuw i8, ptr %1, i64 20
  %7 = load i32, ptr %6, align 4
  %8 = add i32 %7, 7
  %9 = and i32 %8, -8
  %10 = add i32 %9, %5
  store i32 %10, ptr %3, align 4
  %.fca.0.insert = insertvalue { i32, ptr } poison, i32 %5, 0
  %.fca.1.insert = insertvalue { i32, ptr } %.fca.0.insert, ptr %1, 1
  ret { i32, ptr } %.fca.1.insert
}